target datalayout = "e-m:e-p270:32:32-p271:32:32-p272:64:64-i64:64-i128:128-f80:128-n8:16:32:64-S128"
target triple = "x86_64-pc-linux-gnu"

%class.QString = type { %struct.QArrayDataPointer }
%struct.QArrayDataPointer = type { ptr, ptr, i64 }
%class.ServiceResponseTimeDialog = type { %class.TapParameterDialog, ptr, %struct._srt_data_t }
%class.TapParameterDialog = type { %class.WiresharkDialog.base, ptr, %class.QMenu, %class.QList.1, i32, ptr }
%class.WiresharkDialog.base = type <{ %class.GeometryStateDialog, ptr, i8, [7 x i8], %class.QString, %class.QList, i32, i8 }>
%class.GeometryStateDialog = type { %class.QDialog, %class.QString, ptr }
%class.QDialog = type { %class.QWidget }
%class.QWidget = type { %class.QObject, %class.QPaintDevice.base, ptr }
%class.QObject = type { ptr, %class.QScopedPointer }
%class.QScopedPointer = type { ptr }
%class.QPaintDevice.base = type <{ ptr, i16 }>
%class.QList = type { %struct.QArrayDataPointer.0 }
%struct.QArrayDataPointer.0 = type { ptr, ptr, i64 }
%class.QMenu = type { %class.QWidget }
%class.QList.1 = type { %struct.QArrayDataPointer.4 }
%struct.QArrayDataPointer.4 = type { ptr, ptr, i64 }
%struct._srt_data_t = type { ptr, ptr }

@_ZTV25ServiceResponseTimeDialog = external unnamed_addr constant { [69 x ptr], [10 x ptr] }, align 8

; Function Attrs: mustprogress nounwind null_pointer_is_valid sspstrong uwtable
define void @_ZN25ServiceResponseTimeDialogD2Ev(ptr noundef align 8 dereferenceable_or_null(256) %0) unnamed_addr #1 align 2 personality ptr @__gxx_personality_v0 {
  %2 = alloca ptr, align 8
  store ptr %0, ptr %2, align 8
  %3 = load ptr, ptr %2, align 8
  store ptr getelementptr inbounds inrange(-16, 536) ({ [69 x ptr], [10 x ptr] }, ptr @_ZTV25ServiceResponseTimeDialog, i32 0, i32 0, i32 2), ptr %3, align 8
  %4 = getelementptr inbounds i8, ptr %3, i64 16
  store ptr getelementptr inbounds inrange(-16, 64) ({ [69 x ptr], [10 x ptr] }, ptr @_ZTV25ServiceResponseTimeDialog, i32 0, i32 1, i32 2), ptr %4, align 8
  %5 = getelementptr inbounds nuw %class.ServiceResponseTimeDialog, ptr %3, i32 0, i32 2
  %6 = getelementptr inbounds nuw %struct._srt_data_t, ptr %5, i32 0, i32 0
  %7 = load ptr, ptr %6, align 8
  %8 = icmp ne ptr %7, null
  br i1 %8, label %9, label %21

9:                                                ; preds = %1
  %10 = getelementptr inbounds nuw %class.ServiceResponseTimeDialog, ptr %3, i32 0, i32 1
  %11 = load ptr, ptr %10, align 8
  %12 = getelementptr inbounds nuw %class.ServiceResponseTimeDialog, ptr %3, i32 0, i32 2
  %13 = getelementptr inbounds nuw %struct._srt_data_t, ptr %12, i32 0, i32 0
  %14 = load ptr, ptr %13, align 8
  invoke void @free_srt_table(ptr noundef %11, ptr noundef %14)
          to label %15 unwind label %22

15:                                               ; preds = %9
  %16 = getelementptr inbounds nuw %class.ServiceResponseTimeDialog, ptr %3, i32 0, i32 2
  %17 = getelementptr inbounds nuw %struct._srt_data_t, ptr %16, i32 0, i32 0
  %18 = load ptr, ptr %17, align 8
  %19 = invoke ptr @g_array_free(ptr noundef %18, i32 noundef 1)
          to label %20 unwind label %22

20:                                               ; preds = %15
  br label %21

21:                                               ; preds = %20, %1
  call void @_ZN18TapParameterDialogD2Ev(ptr noundef align 8 dereferenceable_or_null(232) %3) #2
  ret void

22:                                               ; preds = %15, %9
  %23 = landingpad { ptr, i32 }
          catch ptr null
  %24 = extractvalue { ptr, i32 } %23, 0
  call void @__clang_call_terminate(ptr %24) #28
  unreachable
}