; Function Attrs: mustprogress nounwind null_pointer_is_valid sspstrong uwtable
define void @_ZN25ServiceResponseTimeDialogD2Ev(ptr noundef align 8 dereferenceable_or_null(256) initializes((0, 8), (16, 24)) %0) unnamed_addr #0 align 2 personality ptr @__gxx_personality_v0 {
  store ptr getelementptr inbounds nuw inrange(-16, 536) (i8, ptr @_ZTV25ServiceResponseTimeDialog, i64 16), ptr %0, align 8
  %2 = getelementptr inbounds nuw i8, ptr %0, i64 16
  store ptr getelementptr inbounds nuw inrange(-16, 64) (i8, ptr @_ZTV25ServiceResponseTimeDialog, i64 568), ptr %2, align 8
  %3 = getelementptr inbounds nuw i8, ptr %0, i64 240
  %4 = load ptr, ptr %3, align 8
  %.not = icmp eq ptr %4, null
  br i1 %.not, label %11, label %5

5:                                                ; preds = %1
  %6 = getelementptr inbounds nuw i8, ptr %0, i64 232
  %7 = load ptr, ptr %6, align 8
  invoke void @free_srt_table(ptr noundef %7, ptr noundef nonnull %4)
          to label %8 unwind label %12

8:                                                ; preds = %5
  %9 = load ptr, ptr %3, align 8
  %10 = invoke ptr @g_array_free(ptr noundef %9, i32 noundef 1)
          to label %11 unwind label %12

11:                                               ; preds = %8, %1
  tail call void @_ZN18TapParameterDialogD2Ev(ptr noundef align 8 dereferenceable_or_null(232) %0) #26
  ret void

12:                                               ; preds = %8, %5
  %13 = landingpad { ptr, i32 }
          catch ptr null
  %14 = extractvalue { ptr, i32 } %13, 0
  tail call void @__clang_call_terminate(ptr %14) #30
  unreachable
}